; Function Attrs: mustprogress uwtable
define internal void @_ZL19dce_rpc_add_programPvS_S_(ptr noundef %0, ptr nocapture noundef readonly %1, ptr noundef %2) #0 {
  %.not = icmp eq ptr %2, null
  br i1 %.not, label %5, label %4

4:                                                ; preds = %3
  tail call void @_ZN28RpcServiceResponseTimeDialog16addDceRpcProgramEP9_guid_keyP18_dcerpc_uuid_value(ptr noundef nonnull align 8 dereferenceable(316) %2, ptr noundef %0, ptr noundef %1)
  br label %5

5:                                                ; preds = %3, %4
  ret void
}